target datalayout = "e-m:e-p270:32:32-p271:32:32-p272:64:64-i64:64-i128:128-f80:128-n8:16:32:64-S128"
target triple = "x86_64-pc-linux-gnu"

%union.JfrNativeSettings = type { [164 x %struct.jfrNativeEventSetting] }
%struct.jfrNativeEventSetting = type { i64, i64, i8, i8, i8, [5 x i8] }
%class.EventEvacuationFailed = type { %class.JfrEvent.base.3, i32, %struct.JfrStructCopyFailed }
%class.JfrEvent.base.3 = type <{ i64, i64, i8, i8, i8 }>
%struct.JfrStructCopyFailed = type { i64, i64, i64, i64 }
%class.JfrEvent.2 = type <{ i64, i64, i8, i8, i8, [5 x i8] }>
%class.CopyFailedInfo = type <{ ptr, i64, i64, i64, i32, [4 x i8] }>
%class.TimeInstant.16 = type { %class.CounterRepresentation }
%class.CounterRepresentation = type { %class.Representation.17 }
%class.Representation.17 = type { i64 }

@_ZN15JfrEventSetting19_jvm_event_settingsE = external global %union.JfrNativeSettings, align 8

; Function Attrs: mustprogress nounwind uwtable
define linkonce_odr hidden void @_ZN14RepresentationI33FastUnorderedElapsedCounterSourceEC2Ev(ptr noundef nonnull align 8 dereferenceable(8) %0) unnamed_addr #1 comdat align 2 {
  %2 = alloca ptr, align 8
  store ptr %0, ptr %2, align 8
  %3 = load ptr, ptr %2, align 8
  %4 = getelementptr inbounds %class.Representation.17, ptr %3, i32 0, i32 0
  store i64 0, ptr %4, align 8
  ret void
}

; Function Attrs: mustprogress nounwind uwtable
define linkonce_odr hidden void @_ZN21CounterRepresentationI33FastUnorderedElapsedCounterSourceEC2Ev(ptr noundef nonnull align 8 dereferenceable(8) %0) unnamed_addr #1 comdat align 2 {
  %2 = alloca ptr, align 8
  store ptr %0, ptr %2, align 8
  %3 = load ptr, ptr %2, align 8
  call void @_ZN14RepresentationI33FastUnorderedElapsedCounterSourceEC2Ev(ptr noundef nonnull align 8 dereferenceable(8) %3)
  ret void
}

; Function Attrs: mustprogress nounwind uwtable
define linkonce_odr hidden noundef i64 @_ZNK21CounterRepresentationI33FastUnorderedElapsedCounterSourceE5valueEv(ptr noundef nonnull align 8 dereferenceable(8) %0) #1 comdat align 2 {
  %2 = alloca ptr, align 8
  store ptr %0, ptr %2, align 8
  %3 = load ptr, ptr %2, align 8
  %4 = getelementptr inbounds %class.Representation.17, ptr %3, i32 0, i32 0
  %5 = load i64, ptr %4, align 8
  ret i64 %5
}

; Function Attrs: mustprogress nounwind uwtable
define linkonce_odr hidden void @_ZN11TimeInstantI21CounterRepresentation33FastUnorderedElapsedCounterSourceE5stampEv(ptr noundef nonnull align 8 dereferenceable(8) %0) #1 comdat align 2 {
  %2 = alloca ptr, align 8
  store ptr %0, ptr %2, align 8
  %3 = load ptr, ptr %2, align 8
  %4 = call noundef i64 @_ZN33FastUnorderedElapsedCounterSource3nowEv()
  %5 = getelementptr inbounds %class.Representation.17, ptr %3, i32 0, i32 0
  store i64 %4, ptr %5, align 8
  ret void
}

; Function Attrs: mustprogress nounwind uwtable
define linkonce_odr hidden void @_ZN11TimeInstantI21CounterRepresentation33FastUnorderedElapsedCounterSourceEC2Ev(ptr noundef nonnull align 8 dereferenceable(8) %0) unnamed_addr #1 comdat align 2 {
  %2 = alloca ptr, align 8
  store ptr %0, ptr %2, align 8
  %3 = load ptr, ptr %2, align 8
  call void @_ZN21CounterRepresentationI33FastUnorderedElapsedCounterSourceEC2Ev(ptr noundef nonnull align 8 dereferenceable(8) %3)
  ret void
}

; Function Attrs: mustprogress nounwind uwtable
define linkonce_odr hidden noundef nonnull align 8 dereferenceable(24) ptr @_ZN15JfrEventSetting7settingE10JfrEventId(i32 noundef %0) #1 comdat align 2 {
  %2 = alloca i32, align 4
  store i32 %0, ptr %2, align 4
  %3 = load i32, ptr %2, align 4
  %4 = zext i32 %3 to i64
  %5 = getelementptr inbounds [164 x %struct.jfrNativeEventSetting], ptr @_ZN15JfrEventSetting19_jvm_event_settingsE, i64 0, i64 %4
  ret ptr %5
}

; Function Attrs: mustprogress nounwind uwtable
define linkonce_odr hidden void @_ZN8JfrEventI21EventEvacuationFailedE11set_endtimeERK11TimeInstantI21CounterRepresentation33FastUnorderedElapsedCounterSourceE(ptr noundef nonnull align 8 dereferenceable(19) %0, ptr noundef nonnull align 8 dereferenceable(8) %1) #1 comdat align 2 {
  %3 = alloca ptr, align 8
  %4 = alloca ptr, align 8
  store ptr %0, ptr %3, align 8
  store ptr %1, ptr %4, align 8
  %5 = load ptr, ptr %3, align 8
  %6 = load ptr, ptr %4, align 8
  %7 = call noundef i64 @_ZNK21CounterRepresentationI33FastUnorderedElapsedCounterSourceE5valueEv(ptr noundef nonnull align 8 dereferenceable(8) %6)
  %8 = getelementptr inbounds %class.JfrEvent.2, ptr %5, i32 0, i32 1
  store i64 %7, ptr %8, align 8
  ret void
}

; Function Attrs: mustprogress nounwind uwtable
define linkonce_odr hidden void @_ZN8JfrEventI21EventEvacuationFailedE13set_starttimeERK11TimeInstantI21CounterRepresentation33FastUnorderedElapsedCounterSourceE(ptr noundef nonnull align 8 dereferenceable(19) %0, ptr noundef nonnull align 8 dereferenceable(8) %1) #1 comdat align 2 {
  %3 = alloca ptr, align 8
  %4 = alloca ptr, align 8
  store ptr %0, ptr %3, align 8
  store ptr %1, ptr %4, align 8
  %5 = load ptr, ptr %3, align 8
  %6 = load ptr, ptr %4, align 8
  %7 = call noundef i64 @_ZNK21CounterRepresentationI33FastUnorderedElapsedCounterSourceE5valueEv(ptr noundef nonnull align 8 dereferenceable(8) %6)
  %8 = getelementptr inbounds %class.JfrEvent.2, ptr %5, i32 0, i32 0
  store i64 %7, ptr %8, align 8
  ret void
}

; Function Attrs: mustprogress nounwind uwtable
define linkonce_odr hidden i64 @_ZN11TimeInstantI21CounterRepresentation33FastUnorderedElapsedCounterSourceE3nowEv() #1 comdat align 2 {
  %1 = alloca %class.TimeInstant.16, align 8
  call void @_ZN11TimeInstantI21CounterRepresentation33FastUnorderedElapsedCounterSourceEC2Ev(ptr noundef nonnull align 8 dereferenceable(8) %1)
  call void @_ZN11TimeInstantI21CounterRepresentation33FastUnorderedElapsedCounterSourceE5stampEv(ptr noundef nonnull align 8 dereferenceable(8) %1)
  %2 = getelementptr inbounds %class.TimeInstant.16, ptr %1, i32 0, i32 0
  %3 = getelementptr inbounds %class.CounterRepresentation, ptr %2, i32 0, i32 0
  %4 = getelementptr inbounds %class.Representation.17, ptr %3, i32 0, i32 0
  %5 = load i64, ptr %4, align 8
  ret i64 %5
}

; Function Attrs: mustprogress nounwind uwtable
define linkonce_odr hidden noundef zeroext i1 @_ZN15JfrEventSetting10is_enabledE10JfrEventId(i32 noundef %0) #1 comdat align 2 {
  %2 = alloca i32, align 4
  store i32 %0, ptr %2, align 4
  %3 = load i32, ptr %2, align 4
  %4 = call noundef nonnull align 8 dereferenceable(24) ptr @_ZN15JfrEventSetting7settingE10JfrEventId(i32 noundef %3)
  %5 = getelementptr inbounds %struct.jfrNativeEventSetting, ptr %4, i32 0, i32 3
  %6 = load i8, ptr %5, align 1
  %7 = zext i8 %6 to i32
  %8 = icmp ne i32 0, %7
  ret i1 %8
}

; Function Attrs: mustprogress nounwind uwtable
define linkonce_odr hidden noundef zeroext i1 @_ZN8JfrEventI21EventEvacuationFailedE8evaluateEv(ptr noundef nonnull align 8 dereferenceable(19) %0) #1 comdat align 2 {
  %2 = alloca ptr, align 8
  %3 = alloca %class.TimeInstant.16, align 8
  %4 = alloca %class.TimeInstant.16, align 8
  store ptr %0, ptr %2, align 8
  %5 = load ptr, ptr %2, align 8
  %6 = getelementptr inbounds %class.JfrEvent.2, ptr %5, i32 0, i32 0
  %7 = load i64, ptr %6, align 8
  %8 = icmp eq i64 %7, 0
  br i1 %8, label %9, label %14

9:                                                ; preds = %1
  %10 = call i64 @_ZN11TimeInstantI21CounterRepresentation33FastUnorderedElapsedCounterSourceE3nowEv()
  %11 = getelementptr inbounds %class.TimeInstant.16, ptr %3, i32 0, i32 0
  %12 = getelementptr inbounds %class.CounterRepresentation, ptr %11, i32 0, i32 0
  %13 = getelementptr inbounds %class.Representation.17, ptr %12, i32 0, i32 0
  store i64 %10, ptr %13, align 8
  call void @_ZN8JfrEventI21EventEvacuationFailedE13set_starttimeERK11TimeInstantI21CounterRepresentation33FastUnorderedElapsedCounterSourceE(ptr noundef nonnull align 8 dereferenceable(19) %5, ptr noundef nonnull align 8 dereferenceable(8) %3)
  br label %24

14:                                               ; preds = %1
  %15 = getelementptr inbounds %class.JfrEvent.2, ptr %5, i32 0, i32 1
  %16 = load i64, ptr %15, align 8
  %17 = icmp eq i64 %16, 0
  br i1 %17, label %18, label %23

18:                                               ; preds = %14
  %19 = call i64 @_ZN11TimeInstantI21CounterRepresentation33FastUnorderedElapsedCounterSourceE3nowEv()
  %20 = getelementptr inbounds %class.TimeInstant.16, ptr %4, i32 0, i32 0
  %21 = getelementptr inbounds %class.CounterRepresentation, ptr %20, i32 0, i32 0
  %22 = getelementptr inbounds %class.Representation.17, ptr %21, i32 0, i32 0
  store i64 %19, ptr %22, align 8
  call void @_ZN8JfrEventI21EventEvacuationFailedE11set_endtimeERK11TimeInstantI21CounterRepresentation33FastUnorderedElapsedCounterSourceE(ptr noundef nonnull align 8 dereferenceable(19) %5, ptr noundef nonnull align 8 dereferenceable(8) %4)
  br label %23

23:                                               ; preds = %18, %14
  br label %24

24:                                               ; preds = %23, %9
  ret i1 true
}

; Function Attrs: mustprogress nounwind uwtable
define linkonce_odr hidden noundef zeroext i1 @_ZN8JfrEventI21EventEvacuationFailedE10is_enabledEv() #1 comdat align 2 {
  %1 = call noundef zeroext i1 @_ZN15JfrEventSetting10is_enabledE10JfrEventId(i32 noundef 62)
  ret i1 %1
}

; Function Attrs: mustprogress nounwind uwtable
define linkonce_odr hidden void @_ZN8JfrEventI21EventEvacuationFailedEC2E14EventStartTime(ptr noundef nonnull align 8 dereferenceable(19) %0, i32 noundef %1) unnamed_addr #1 comdat align 2 {
  %3 = alloca ptr, align 8
  %4 = alloca i32, align 4
  store ptr %0, ptr %3, align 8
  store i32 %1, ptr %4, align 4
  %5 = load ptr, ptr %3, align 8
  %6 = getelementptr inbounds %class.JfrEvent.2, ptr %5, i32 0, i32 0
  store i64 0, ptr %6, align 8
  %7 = getelementptr inbounds %class.JfrEvent.2, ptr %5, i32 0, i32 1
  store i64 0, ptr %7, align 8
  %8 = getelementptr inbounds %class.JfrEvent.2, ptr %5, i32 0, i32 2
  %9 = load i32, ptr %4, align 4
  %10 = icmp eq i32 %9, 0
  %11 = zext i1 %10 to i8
  store i8 %11, ptr %8, align 8
  %12 = getelementptr inbounds %class.JfrEvent.2, ptr %5, i32 0, i32 3
  store i8 0, ptr %12, align 1
  %13 = getelementptr inbounds %class.JfrEvent.2, ptr %5, i32 0, i32 4
  store i8 0, ptr %13, align 2
  ret void
}

; Function Attrs: mustprogress nounwind uwtable
define linkonce_odr hidden void @_ZN21EventEvacuationFailed20set_evacuationFailedERK19JfrStructCopyFailed(ptr noundef nonnull align 8 dereferenceable(56) %0, ptr noundef nonnull align 8 dereferenceable(32) %1) #1 comdat align 2 {
  %3 = alloca ptr, align 8
  %4 = alloca ptr, align 8
  store ptr %0, ptr %3, align 8
  store ptr %1, ptr %4, align 8
  %5 = load ptr, ptr %3, align 8
  %6 = load ptr, ptr %4, align 8
  %7 = getelementptr inbounds %class.EventEvacuationFailed, ptr %5, i32 0, i32 2
  call void @llvm.memcpy.p0.p0.i64(ptr align 8 %7, ptr align 8 %6, i64 32, i1 false)
  ret void
}

; Function Attrs: mustprogress nounwind uwtable
define linkonce_odr hidden void @_ZN21EventEvacuationFailed8set_gcIdEj(ptr noundef nonnull align 8 dereferenceable(56) %0, i32 noundef %1) #1 comdat align 2 {
  %3 = alloca ptr, align 8
  %4 = alloca i32, align 4
  store ptr %0, ptr %3, align 8
  store i32 %1, ptr %4, align 4
  %5 = load ptr, ptr %3, align 8
  %6 = load i32, ptr %4, align 4
  %7 = getelementptr inbounds %class.EventEvacuationFailed, ptr %5, i32 0, i32 1
  store i32 %6, ptr %7, align 4
  ret void
}

; Function Attrs: mustprogress nounwind uwtable
define linkonce_odr hidden void @_ZN19JfrStructCopyFailed13set_totalSizeEm(ptr noundef nonnull align 8 dereferenceable(32) %0, i64 noundef %1) #1 comdat align 2 {
  %3 = alloca ptr, align 8
  %4 = alloca i64, align 8
  store ptr %0, ptr %3, align 8
  store i64 %1, ptr %4, align 8
  %5 = load ptr, ptr %3, align 8
  %6 = load i64, ptr %4, align 8
  %7 = getelementptr inbounds %struct.JfrStructCopyFailed, ptr %5, i32 0, i32 3
  store i64 %6, ptr %7, align 8
  ret void
}

; Function Attrs: mustprogress nounwind uwtable
define linkonce_odr hidden noundef i64 @_ZNK14CopyFailedInfo10total_sizeEv(ptr noundef nonnull align 8 dereferenceable(36) %0) #1 comdat align 2 {
  %2 = alloca ptr, align 8
  store ptr %0, ptr %2, align 8
  %3 = load ptr, ptr %2, align 8
  %4 = getelementptr inbounds %class.CopyFailedInfo, ptr %3, i32 0, i32 3
  %5 = load i64, ptr %4, align 8
  ret i64 %5
}

; Function Attrs: mustprogress nounwind uwtable
define linkonce_odr hidden void @_ZN19JfrStructCopyFailed16set_smallestSizeEm(ptr noundef nonnull align 8 dereferenceable(32) %0, i64 noundef %1) #1 comdat align 2 {
  %3 = alloca ptr, align 8
  %4 = alloca i64, align 8
  store ptr %0, ptr %3, align 8
  store i64 %1, ptr %4, align 8
  %5 = load ptr, ptr %3, align 8
  %6 = load i64, ptr %4, align 8
  %7 = getelementptr inbounds %struct.JfrStructCopyFailed, ptr %5, i32 0, i32 2
  store i64 %6, ptr %7, align 8
  ret void
}

; Function Attrs: mustprogress nounwind uwtable
define linkonce_odr hidden noundef i64 @_ZNK14CopyFailedInfo13smallest_sizeEv(ptr noundef nonnull align 8 dereferenceable(36) %0) #1 comdat align 2 {
  %2 = alloca ptr, align 8
  store ptr %0, ptr %2, align 8
  %3 = load ptr, ptr %2, align 8
  %4 = getelementptr inbounds %class.CopyFailedInfo, ptr %3, i32 0, i32 2
  %5 = load i64, ptr %4, align 8
  ret i64 %5
}

; Function Attrs: mustprogress nounwind uwtable
define linkonce_odr hidden void @_ZN19JfrStructCopyFailed13set_firstSizeEm(ptr noundef nonnull align 8 dereferenceable(32) %0, i64 noundef %1) #1 comdat align 2 {
  %3 = alloca ptr, align 8
  %4 = alloca i64, align 8
  store ptr %0, ptr %3, align 8
  store i64 %1, ptr %4, align 8
  %5 = load ptr, ptr %3, align 8
  %6 = load i64, ptr %4, align 8
  %7 = getelementptr inbounds %struct.JfrStructCopyFailed, ptr %5, i32 0, i32 1
  store i64 %6, ptr %7, align 8
  ret void
}

; Function Attrs: mustprogress nounwind uwtable
define linkonce_odr hidden noundef i64 @_ZNK14CopyFailedInfo10first_sizeEv(ptr noundef nonnull align 8 dereferenceable(36) %0) #1 comdat align 2 {
  %2 = alloca ptr, align 8
  store ptr %0, ptr %2, align 8
  %3 = load ptr, ptr %2, align 8
  %4 = getelementptr inbounds %class.CopyFailedInfo, ptr %3, i32 0, i32 1
  %5 = load i64, ptr %4, align 8
  ret i64 %5
}

; Function Attrs: mustprogress nounwind uwtable
define linkonce_odr hidden void @_ZN19JfrStructCopyFailed15set_objectCountEm(ptr noundef nonnull align 8 dereferenceable(32) %0, i64 noundef %1) #1 comdat align 2 {
  %3 = alloca ptr, align 8
  %4 = alloca i64, align 8
  store ptr %0, ptr %3, align 8
  store i64 %1, ptr %4, align 8
  %5 = load ptr, ptr %3, align 8
  %6 = load i64, ptr %4, align 8
  %7 = getelementptr inbounds %struct.JfrStructCopyFailed, ptr %5, i32 0, i32 0
  store i64 %6, ptr %7, align 8
  ret void
}

; Function Attrs: mustprogress nounwind uwtable
define linkonce_odr hidden noundef i32 @_ZNK14CopyFailedInfo12failed_countEv(ptr noundef nonnull align 8 dereferenceable(36) %0) #1 comdat align 2 {
  %2 = alloca ptr, align 8
  store ptr %0, ptr %2, align 8
  %3 = load ptr, ptr %2, align 8
  %4 = getelementptr inbounds %class.CopyFailedInfo, ptr %3, i32 0, i32 4
  %5 = load i32, ptr %4, align 8
  ret i32 %5
}

; Function Attrs: mustprogress nounwind uwtable
define linkonce_odr hidden noundef zeroext i1 @_ZN8JfrEventI21EventEvacuationFailedE13should_commitEv(ptr noundef nonnull align 8 dereferenceable(19) %0) #1 comdat align 2 {
  %2 = alloca i1, align 1
  %3 = alloca ptr, align 8
  store ptr %0, ptr %3, align 8
  %4 = load ptr, ptr %3, align 8
  %5 = call noundef zeroext i1 @_ZN8JfrEventI21EventEvacuationFailedE10is_enabledEv()
  br i1 %5, label %7, label %6

6:                                                ; preds = %1
  store i1 false, ptr %2, align 1
  br label %20

7:                                                ; preds = %1
  %8 = getelementptr inbounds %class.JfrEvent.2, ptr %4, i32 0, i32 2
  %9 = load i8, ptr %8, align 8
  %10 = trunc i8 %9 to i1
  br i1 %10, label %11, label %12

11:                                               ; preds = %7
  store i1 true, ptr %2, align 1
  br label %20

12:                                               ; preds = %7
  %13 = call noundef zeroext i1 @_ZN8JfrEventI21EventEvacuationFailedE8evaluateEv(ptr noundef nonnull align 8 dereferenceable(19) %4)
  %14 = getelementptr inbounds %class.JfrEvent.2, ptr %4, i32 0, i32 3
  %15 = zext i1 %13 to i8
  store i8 %15, ptr %14, align 1
  %16 = getelementptr inbounds %class.JfrEvent.2, ptr %4, i32 0, i32 4
  store i8 1, ptr %16, align 2
  %17 = getelementptr inbounds %class.JfrEvent.2, ptr %4, i32 0, i32 3
  %18 = load i8, ptr %17, align 1
  %19 = trunc i8 %18 to i1
  store i1 %19, ptr %2, align 1
  br label %20

20:                                               ; preds = %12, %11, %6
  %21 = load i1, ptr %2, align 1
  ret i1 %21
}

; Function Attrs: mustprogress nounwind uwtable
define linkonce_odr hidden void @_ZN21EventEvacuationFailedC2E14EventStartTime(ptr noundef nonnull align 8 dereferenceable(56) %0, i32 noundef %1) unnamed_addr #1 comdat align 2 {
  %3 = alloca ptr, align 8
  %4 = alloca i32, align 4
  store ptr %0, ptr %3, align 8
  store i32 %1, ptr %4, align 4
  %5 = load ptr, ptr %3, align 8
  %6 = load i32, ptr %4, align 4
  call void @_ZN8JfrEventI21EventEvacuationFailedEC2E14EventStartTime(ptr noundef nonnull align 8 dereferenceable(19) %5, i32 noundef %6)
  ret void
}

; Function Attrs: mustprogress nounwind uwtable
define hidden void @_ZNK11G1NewTracer28send_evacuation_failed_eventERK20EvacuationFailedInfo(ptr noundef nonnull align 8 dereferenceable(88) %0, ptr noundef nonnull align 8 dereferenceable(36) %1) #1 align 2 {
  %3 = alloca ptr, align 8
  %4 = alloca ptr, align 8
  %5 = alloca %class.EventEvacuationFailed, align 8
  %6 = alloca %struct.JfrStructCopyFailed, align 8
  store ptr %0, ptr %3, align 8
  store ptr %1, ptr %4, align 8
  call void @_ZN21EventEvacuationFailedC2E14EventStartTime(ptr noundef nonnull align 8 dereferenceable(56) %5, i32 noundef 1)
  %7 = call noundef zeroext i1 @_ZN8JfrEventI21EventEvacuationFailedE13should_commitEv(ptr noundef nonnull align 8 dereferenceable(19) %5)
  br i1 %7, label %8, label %22

8:                                                ; preds = %2
  %9 = load ptr, ptr %4, align 8
  %10 = call noundef i32 @_ZNK14CopyFailedInfo12failed_countEv(ptr noundef nonnull align 8 dereferenceable(36) %9)
  %11 = zext i32 %10 to i64
  call void @_ZN19JfrStructCopyFailed15set_objectCountEm(ptr noundef nonnull align 8 dereferenceable(32) %6, i64 noundef %11)
  %12 = load ptr, ptr %4, align 8
  %13 = call noundef i64 @_ZNK14CopyFailedInfo10first_sizeEv(ptr noundef nonnull align 8 dereferenceable(36) %12)
  %14 = mul i64 %13, 8
  call void @_ZN19JfrStructCopyFailed13set_firstSizeEm(ptr noundef nonnull align 8 dereferenceable(32) %6, i64 noundef %14)
  %15 = load ptr, ptr %4, align 8
  %16 = call noundef i64 @_ZNK14CopyFailedInfo13smallest_sizeEv(ptr noundef nonnull align 8 dereferenceable(36) %15)
  %17 = mul i64 %16, 8
  call void @_ZN19JfrStructCopyFailed16set_smallestSizeEm(ptr noundef nonnull align 8 dereferenceable(32) %6, i64 noundef %17)
  %18 = load ptr, ptr %4, align 8
  %19 = call noundef i64 @_ZNK14CopyFailedInfo10total_sizeEv(ptr noundef nonnull align 8 dereferenceable(36) %18)
  %20 = mul i64 %19, 8
  call void @_ZN19JfrStructCopyFailed13set_totalSizeEm(ptr noundef nonnull align 8 dereferenceable(32) %6, i64 noundef %20)
  %21 = call noundef i32 @_ZN4GCId7currentEv()
  call void @_ZN21EventEvacuationFailed8set_gcIdEj(ptr noundef nonnull align 8 dereferenceable(56) %5, i32 noundef %21)
  call void @_ZN21EventEvacuationFailed20set_evacuationFailedERK19JfrStructCopyFailed(ptr noundef nonnull align 8 dereferenceable(56) %5, ptr noundef nonnull align 8 dereferenceable(32) %6)
  call void @_ZN8JfrEventI21EventEvacuationFailedE6commitEv(ptr noundef nonnull align 8 dereferenceable(19) %5)
  br label %22

22:                                               ; preds = %8, %2
  ret void
}

; Function Attrs: mustprogress nounwind uwtable
define hidden void @_ZN11G1NewTracer24report_evacuation_failedER20EvacuationFailedInfo(ptr noundef nonnull align 8 dereferenceable(88) %0, ptr noundef nonnull align 8 dereferenceable(36) %1) #1 align 2 {
  %3 = alloca ptr, align 8
  %4 = alloca ptr, align 8
  store ptr %0, ptr %3, align 8
  store ptr %1, ptr %4, align 8
  %5 = load ptr, ptr %3, align 8
  %6 = load ptr, ptr %4, align 8
  call void @_ZNK11G1NewTracer28send_evacuation_failed_eventERK20EvacuationFailedInfo(ptr noundef nonnull align 8 dereferenceable(88) %5, ptr noundef nonnull align 8 dereferenceable(36) %6)
  %7 = load ptr, ptr %4, align 8
  %8 = load ptr, ptr %7, align 8
  %9 = getelementptr inbounds ptr, ptr %8, i64 1
  %10 = load ptr, ptr %9, align 8
  call void %10(ptr noundef nonnull align 8 dereferenceable(36) %7)
  ret void
}