; Function Attrs: mustprogress nounwind uwtable
define hidden void @_ZN11G1NewTracer24report_evacuation_failedER20EvacuationFailedInfo(ptr nocapture noundef nonnull readnone align 8 dereferenceable(88) %0, ptr noundef nonnull align 8 dereferenceable(36) %1) local_unnamed_addr #0 align 2 {
  %3 = alloca %class.EventEvacuationFailed, align 8
  call void @llvm.lifetime.start.p0(i64 56, ptr nonnull %3)
  %4 = getelementptr inbounds i8, ptr %3, i64 8
  call void @llvm.memset.p0.i64(ptr noundef nonnull align 8 dereferenceable(11) %4, i8 0, i64 11, i1 false)
  %5 = load i8, ptr getelementptr inbounds (i8, ptr @_ZN15JfrEventSetting19_jvm_event_settingsE, i64 1505), align 1
  %.not.i.not.i = icmp eq i8 %5, 0
  br i1 %.not.i.not.i, label %_ZNK11G1NewTracer28send_evacuation_failed_eventERK20EvacuationFailedInfo.exit, label %6

6:                                                ; preds = %2
  %7 = getelementptr inbounds i8, ptr %3, i64 18
  %8 = getelementptr inbounds i8, ptr %3, i64 17
  %9 = tail call noundef i64 @_ZN33FastUnorderedElapsedCounterSource3nowEv() #11
  store i64 %9, ptr %3, align 8
  store i8 1, ptr %8, align 1
  store i8 1, ptr %7, align 2
  %10 = getelementptr inbounds i8, ptr %1, i64 32
  %11 = load i32, ptr %10, align 8
  %12 = zext i32 %11 to i64
  %13 = getelementptr inbounds i8, ptr %1, i64 8
  %14 = getelementptr inbounds i8, ptr %1, i64 24
  %15 = load i64, ptr %14, align 8
  %16 = shl i64 %15, 3
  %17 = getelementptr inbounds i8, ptr %3, i64 20
  %18 = getelementptr inbounds i8, ptr %3, i64 24
  %.sroa.2.0..sroa_idx.i = getelementptr inbounds i8, ptr %3, i64 32
  %19 = load <2 x i64>, ptr %13, align 8
  %20 = shl <2 x i64> %19, <i64 3, i64 3>
  %21 = tail call noundef i32 @_ZN4GCId7currentEv() #11
  store i32 %21, ptr %17, align 4
  store i64 %12, ptr %18, align 8
  store <2 x i64> %20, ptr %.sroa.2.0..sroa_idx.i, align 8
  %.sroa.4.0..sroa_idx.i = getelementptr inbounds i8, ptr %3, i64 48
  store i64 %16, ptr %.sroa.4.0..sroa_idx.i, align 8
  call void @_ZN8JfrEventI21EventEvacuationFailedE6commitEv(ptr noundef nonnull align 8 dereferenceable(19) %3)
  br label %_ZNK11G1NewTracer28send_evacuation_failed_eventERK20EvacuationFailedInfo.exit

_ZNK11G1NewTracer28send_evacuation_failed_eventERK20EvacuationFailedInfo.exit: ; preds = %2, %6
  call void @llvm.lifetime.end.p0(i64 56, ptr nonnull %3)
  %22 = load ptr, ptr %1, align 8
  %23 = getelementptr inbounds i8, ptr %22, i64 8
  %24 = load ptr, ptr %23, align 8
  call void %24(ptr noundef nonnull align 8 dereferenceable(36) %1) #11
  ret void
}